target datalayout = "e-m:e-p270:32:32-p271:32:32-p272:64:64-i64:64-i128:128-f80:128-n8:16:32:64-S128"
target triple = "x86_64-pc-linux-gnu"

%class.goal = type <{ ptr, %class.ref, %class.ref.0, %class.ref.1, i32, [4 x i8], %"class.std::__cxx11::basic_string", %"class.parray_manager<ast_manager::expr_array_config>::ref", %"class.parray_manager<ast_manager::expr_array_config>::ref", %"class.parray_manager<ast_manager::expr_dependency_array_config>::ref", i32, [4 x i8] }>
%class.ref = type { ptr }
%class.ref.0 = type { ptr }
%class.ref.1 = type { ptr }
%"class.std::__cxx11::basic_string" = type { %"struct.std::__cxx11::basic_string<char>::_Alloc_hider", i64, %union.anon }
%"struct.std::__cxx11::basic_string<char>::_Alloc_hider" = type { ptr }
%union.anon = type { i64, [8 x i8] }
%"class.parray_manager<ast_manager::expr_array_config>::ref" = type <{ ptr, i32, [4 x i8] }>
%"class.parray_manager<ast_manager::expr_dependency_array_config>::ref" = type <{ ptr, i32, [4 x i8] }>
%class.ast_manager = type { %class.reslimit, %class.small_object_allocator, %class.family_manager, %class.parray_manager, %class.dependency_manager, %class.parray_manager.12, %class.ptr_vector.15, i32, i8, %class.ast_table, %class.obj_map, %class.id_gen, %class.id_gen, ptr, ptr, ptr, ptr, ptr, i32, i8, [3 x i8], %class.u_map, ptr, i8, i8, ptr, %class.symbol, %class.obj_map.23, ptr }
%class.reslimit = type { %"struct.std::atomic", i8, i64, i64, %class.svector, %class.ptr_vector }
%"struct.std::atomic" = type { %"struct.std::__atomic_base" }
%"struct.std::__atomic_base" = type { i32 }
%class.svector = type { %class.vector }
%class.vector = type { ptr }
%class.ptr_vector = type { %class.vector.2 }
%class.vector.2 = type { ptr }
%class.small_object_allocator = type { [32 x ptr], [32 x ptr], i64 }
%class.family_manager = type { i32, %class.symbol_table, %class.svector.6 }
%class.symbol_table = type { %class.core_hashtable, %class.vector.3, %class.svector.4 }
%class.core_hashtable = type <{ ptr, i32, i32, i32, [4 x i8] }>
%class.vector.3 = type { ptr }
%class.svector.4 = type { %class.vector.5 }
%class.vector.5 = type { ptr }
%class.svector.6 = type { %class.vector.7 }
%class.vector.7 = type { ptr }
%class.parray_manager = type { ptr, ptr, %class.ptr_vector.8, %class.ptr_vector.8 }
%class.ptr_vector.8 = type { %class.vector.9 }
%class.vector.9 = type { ptr }
%class.dependency_manager = type { ptr, ptr, %class.ptr_vector.10 }
%class.ptr_vector.10 = type { %class.vector.11 }
%class.vector.11 = type { ptr }
%class.parray_manager.12 = type { ptr, ptr, %class.ptr_vector.13, %class.ptr_vector.13 }
%class.ptr_vector.13 = type { %class.vector.14 }
%class.vector.14 = type { ptr }
%class.ptr_vector.15 = type { %class.vector.16 }
%class.vector.16 = type { ptr }
%class.ast_table = type { %class.chashtable }
%class.chashtable = type { ptr, i32, i32, i32, i32, i32, i32, i32, ptr, ptr, ptr }
%class.obj_map = type { %class.core_hashtable.17 }
%class.core_hashtable.17 = type <{ ptr, i32, i32, i32, [4 x i8] }>
%class.id_gen = type { i32, %class.svector.19 }
%class.svector.19 = type { %class.vector.20 }
%class.vector.20 = type { ptr }
%class.u_map = type { %class.map }
%class.map = type { %class.table2map }
%class.table2map = type { %class.core_hashtable.21 }
%class.core_hashtable.21 = type <{ ptr, i32, i32, i32, [4 x i8] }>
%class.symbol = type { ptr }
%class.obj_map.23 = type { %class.core_hashtable.24 }
%class.core_hashtable.24 = type <{ ptr, i32, i32, i32, [4 x i8] }>
%"struct.parray_manager<ast_manager::expr_array_config>::cell" = type { i32, %union.anon.50, ptr, %union.anon.51 }
%union.anon.50 = type { i32 }
%union.anon.51 = type { ptr }

; Function Attrs: mustprogress nounwind uwtable
define linkonce_odr hidden noundef i32 @_ZNK14parray_managerIN11ast_manager17expr_array_configEE4cell4sizeEv(ptr noundef nonnull align 8 dereferenceable(24) %0) #4 comdat align 2 {
  %2 = alloca ptr, align 8
  store ptr %0, ptr %2, align 8, !tbaa !284
  %3 = load ptr, ptr %2, align 8
  %4 = getelementptr inbounds nuw %"struct.parray_manager<ast_manager::expr_array_config>::cell", ptr %3, i32 0, i32 1
  %5 = load i32, ptr %4, align 4, !tbaa !277
  ret i32 %5
}

; Function Attrs: mustprogress nounwind uwtable
define linkonce_odr hidden noundef i32 @_ZNK14parray_managerIN11ast_manager17expr_array_configEE4cell3idxEv(ptr noundef nonnull align 8 dereferenceable(24) %0) #4 comdat align 2 {
  %2 = alloca ptr, align 8
  store ptr %0, ptr %2, align 8, !tbaa !284
  %3 = load ptr, ptr %2, align 8
  %4 = getelementptr inbounds nuw %"struct.parray_manager<ast_manager::expr_array_config>::cell", ptr %3, i32 0, i32 1
  %5 = load i32, ptr %4, align 4, !tbaa !277
  ret i32 %5
}

; Function Attrs: mustprogress nounwind uwtable
define linkonce_odr hidden noundef ptr @_ZNK14parray_managerIN11ast_manager17expr_array_configEE4cell4nextEv(ptr noundef nonnull align 8 dereferenceable(24) %0) #4 comdat align 2 {
  %2 = alloca ptr, align 8
  store ptr %0, ptr %2, align 8, !tbaa !284
  %3 = load ptr, ptr %2, align 8
  %4 = getelementptr inbounds nuw %"struct.parray_manager<ast_manager::expr_array_config>::cell", ptr %3, i32 0, i32 3
  %5 = load ptr, ptr %4, align 8, !tbaa !277
  ret ptr %5
}

; Function Attrs: mustprogress nounwind uwtable
define linkonce_odr hidden noundef i32 @_ZNK14parray_managerIN11ast_manager17expr_array_configEE4cell4kindEv(ptr noundef nonnull align 8 dereferenceable(24) %0) #4 comdat align 2 {
  %2 = alloca ptr, align 8
  store ptr %0, ptr %2, align 8, !tbaa !284
  %3 = load ptr, ptr %2, align 8
  %4 = load i32, ptr %3, align 8
  %5 = lshr i32 %4, 30
  ret i32 %5
}

; Function Attrs: mustprogress uwtable
define linkonce_odr hidden noundef i32 @_ZNK14parray_managerIN11ast_manager17expr_array_configEE4sizeERKNS2_3refE(ptr noundef nonnull align 8 dereferenceable(32) %0, ptr noundef nonnull align 8 dereferenceable(12) %1) #5 comdat align 2 {
  %3 = alloca i32, align 4
  %4 = alloca ptr, align 8
  %5 = alloca ptr, align 8
  %6 = alloca ptr, align 8
  %7 = alloca i32, align 4
  store ptr %0, ptr %4, align 8, !tbaa !282
  store ptr %1, ptr %5, align 8, !tbaa !49
  call void @llvm.lifetime.start.p0(i64 8, ptr %6) #3
  %8 = load ptr, ptr %5, align 8, !tbaa !49
  %9 = getelementptr inbounds nuw %"class.parray_manager<ast_manager::expr_array_config>::ref", ptr %8, i32 0, i32 0
  %10 = load ptr, ptr %9, align 8, !tbaa !51
  store ptr %10, ptr %6, align 8, !tbaa !284
  %11 = load ptr, ptr %6, align 8, !tbaa !284
  %12 = icmp eq ptr %11, null
  br i1 %12, label %13, label %14

13:                                               ; preds = %2
  store i32 0, ptr %3, align 4
  store i32 1, ptr %7, align 4
  br label %34

14:                                               ; preds = %2
  br label %15

15:                                               ; preds = %33, %14
  br label %16

16:                                               ; preds = %15
  %17 = load ptr, ptr %6, align 8, !tbaa !284
  %18 = call noundef i32 @_ZNK14parray_managerIN11ast_manager17expr_array_configEE4cell4kindEv(ptr noundef nonnull align 8 dereferenceable(24) %17)
  switch i32 %18, label %33 [
    i32 0, label %19
    i32 1, label %22
    i32 2, label %26
    i32 3, label %30
  ]

19:                                               ; preds = %16
  %20 = load ptr, ptr %6, align 8, !tbaa !284
  %21 = call noundef ptr @_ZNK14parray_managerIN11ast_manager17expr_array_configEE4cell4nextEv(ptr noundef nonnull align 8 dereferenceable(24) %20)
  store ptr %21, ptr %6, align 8, !tbaa !284
  br label %33

22:                                               ; preds = %16
  %23 = load ptr, ptr %6, align 8, !tbaa !284
  %24 = call noundef i32 @_ZNK14parray_managerIN11ast_manager17expr_array_configEE4cell3idxEv(ptr noundef nonnull align 8 dereferenceable(24) %23)
  %25 = add i32 %24, 1
  store i32 %25, ptr %3, align 4
  store i32 1, ptr %7, align 4
  br label %34

26:                                               ; preds = %16
  %27 = load ptr, ptr %6, align 8, !tbaa !284
  %28 = call noundef i32 @_ZNK14parray_managerIN11ast_manager17expr_array_configEE4cell3idxEv(ptr noundef nonnull align 8 dereferenceable(24) %27)
  %29 = sub i32 %28, 1
  store i32 %29, ptr %3, align 4
  store i32 1, ptr %7, align 4
  br label %34

30:                                               ; preds = %16
  %31 = load ptr, ptr %6, align 8, !tbaa !284
  %32 = call noundef i32 @_ZNK14parray_managerIN11ast_manager17expr_array_configEE4cell4sizeEv(ptr noundef nonnull align 8 dereferenceable(24) %31)
  store i32 %32, ptr %3, align 4
  store i32 1, ptr %7, align 4
  br label %34

33:                                               ; preds = %16, %19
  br label %15, !llvm.loop !322

34:                                               ; preds = %30, %26, %22, %13
  call void @llvm.lifetime.end.p0(i64 8, ptr %6) #3
  %35 = load i32, ptr %3, align 4
  ret i32 %35
}

; Function Attrs: mustprogress uwtable
define linkonce_odr hidden noundef i32 @_ZNK11ast_manager4sizeERKN14parray_managerINS_17expr_array_configEE3refE(ptr noundef nonnull align 8 dereferenceable(976) %0, ptr noundef nonnull align 8 dereferenceable(12) %1) #5 comdat align 2 {
  %3 = alloca ptr, align 8
  %4 = alloca ptr, align 8
  store ptr %0, ptr %3, align 8, !tbaa !16
  store ptr %1, ptr %4, align 8, !tbaa !49
  %5 = load ptr, ptr %3, align 8
  %6 = getelementptr inbounds nuw %class.ast_manager, ptr %5, i32 0, i32 3
  %7 = load ptr, ptr %4, align 8, !tbaa !49
  %8 = call noundef i32 @_ZNK14parray_managerIN11ast_manager17expr_array_configEE4sizeERKNS2_3refE(ptr noundef nonnull align 8 dereferenceable(32) %6, ptr noundef nonnull align 8 dereferenceable(12) %7)
  ret i32 %8
}

; Function Attrs: mustprogress uwtable
define linkonce_odr hidden void @_ZN11ast_manager8pop_backERN14parray_managerINS_28expr_dependency_array_configEE3refE(ptr noundef nonnull align 8 dereferenceable(976) %0, ptr noundef nonnull align 8 dereferenceable(12) %1) #5 comdat align 2 {
  %3 = alloca ptr, align 8
  %4 = alloca ptr, align 8
  store ptr %0, ptr %3, align 8, !tbaa !16
  store ptr %1, ptr %4, align 8, !tbaa !53
  %5 = load ptr, ptr %3, align 8
  %6 = getelementptr inbounds nuw %class.ast_manager, ptr %5, i32 0, i32 5
  %7 = load ptr, ptr %4, align 8, !tbaa !53
  call void @_ZN14parray_managerIN11ast_manager28expr_dependency_array_configEE8pop_backERNS2_3refE(ptr noundef nonnull align 8 dereferenceable(32) %6, ptr noundef nonnull align 8 dereferenceable(12) %7)
  ret void
}

; Function Attrs: mustprogress nounwind uwtable
define linkonce_odr hidden noundef zeroext i1 @_ZNK4goal18unsat_core_enabledEv(ptr noundef nonnull align 8 dereferenceable(124) %0) #4 comdat align 2 {
  %2 = alloca ptr, align 8
  store ptr %0, ptr %2, align 8, !tbaa !14
  %3 = load ptr, ptr %2, align 8
  %4 = getelementptr inbounds nuw %class.goal, ptr %3, i32 0, i32 10
  %5 = load i32, ptr %4, align 8
  %6 = lshr i32 %5, 28
  %7 = and i32 %6, 1
  %8 = icmp ne i32 %7, 0
  ret i1 %8
}

; Function Attrs: mustprogress uwtable
define linkonce_odr hidden void @_ZN11ast_manager8pop_backERN14parray_managerINS_17expr_array_configEE3refE(ptr noundef nonnull align 8 dereferenceable(976) %0, ptr noundef nonnull align 8 dereferenceable(12) %1) #5 comdat align 2 {
  %3 = alloca ptr, align 8
  %4 = alloca ptr, align 8
  store ptr %0, ptr %3, align 8, !tbaa !16
  store ptr %1, ptr %4, align 8, !tbaa !49
  %5 = load ptr, ptr %3, align 8
  %6 = getelementptr inbounds nuw %class.ast_manager, ptr %5, i32 0, i32 3
  %7 = load ptr, ptr %4, align 8, !tbaa !49
  call void @_ZN14parray_managerIN11ast_manager17expr_array_configEE8pop_backERNS2_3refE(ptr noundef nonnull align 8 dereferenceable(32) %6, ptr noundef nonnull align 8 dereferenceable(12) %7)
  ret void
}

; Function Attrs: mustprogress nounwind uwtable
define linkonce_odr hidden noundef nonnull align 8 dereferenceable(976) ptr @_ZNK4goal1mEv(ptr noundef nonnull align 8 dereferenceable(124) %0) #4 comdat align 2 {
  %2 = alloca ptr, align 8
  store ptr %0, ptr %2, align 8, !tbaa !14
  %3 = load ptr, ptr %2, align 8
  %4 = getelementptr inbounds nuw %class.goal, ptr %3, i32 0, i32 0
  %5 = load ptr, ptr %4, align 8, !tbaa !121
  ret ptr %5
}

; Function Attrs: mustprogress uwtable
define linkonce_odr hidden noundef i32 @_ZNK4goal4sizeEv(ptr noundef nonnull align 8 dereferenceable(124) %0) #5 comdat align 2 {
  %2 = alloca ptr, align 8
  store ptr %0, ptr %2, align 8, !tbaa !14
  %3 = load ptr, ptr %2, align 8
  %4 = call noundef nonnull align 8 dereferenceable(976) ptr @_ZNK4goal1mEv(ptr noundef nonnull align 8 dereferenceable(124) %3)
  %5 = getelementptr inbounds nuw %class.goal, ptr %3, i32 0, i32 7
  %6 = call noundef i32 @_ZNK11ast_manager4sizeERKN14parray_managerINS_17expr_array_configEE3refE(ptr noundef nonnull align 8 dereferenceable(976) %4, ptr noundef nonnull align 8 dereferenceable(12) %5)
  ret i32 %6
}

; Function Attrs: mustprogress uwtable
define hidden void @_ZN4goal6shrinkEj(ptr noundef nonnull align 8 dereferenceable(124) %0, i32 noundef %1) #5 align 2 {
  %3 = alloca ptr, align 8
  %4 = alloca i32, align 4
  %5 = alloca i32, align 4
  %6 = alloca i32, align 4
  %7 = alloca i32, align 4
  %8 = alloca i32, align 4
  store ptr %0, ptr %3, align 8, !tbaa !14
  store i32 %1, ptr %4, align 4, !tbaa !125
  %9 = load ptr, ptr %3, align 8
  call void @llvm.lifetime.start.p0(i64 4, ptr %5) #3
  %10 = call noundef i32 @_ZNK4goal4sizeEv(ptr noundef nonnull align 8 dereferenceable(124) %9)
  store i32 %10, ptr %5, align 4, !tbaa !125
  call void @llvm.lifetime.start.p0(i64 4, ptr %6) #3
  %11 = load i32, ptr %4, align 4, !tbaa !125
  store i32 %11, ptr %6, align 4, !tbaa !125
  br label %12

12:                                               ; preds = %20, %2
  %13 = load i32, ptr %6, align 4, !tbaa !125
  %14 = load i32, ptr %5, align 4, !tbaa !125
  %15 = icmp ult i32 %13, %14
  br i1 %15, label %17, label %16

16:                                               ; preds = %12
  call void @llvm.lifetime.end.p0(i64 4, ptr %6) #3
  br label %23

17:                                               ; preds = %12
  %18 = call noundef nonnull align 8 dereferenceable(976) ptr @_ZNK4goal1mEv(ptr noundef nonnull align 8 dereferenceable(124) %9)
  %19 = getelementptr inbounds nuw %class.goal, ptr %9, i32 0, i32 7
  call void @_ZN11ast_manager8pop_backERN14parray_managerINS_17expr_array_configEE3refE(ptr noundef nonnull align 8 dereferenceable(976) %18, ptr noundef nonnull align 8 dereferenceable(12) %19)
  br label %20

20:                                               ; preds = %17
  %21 = load i32, ptr %6, align 4, !tbaa !125
  %22 = add i32 %21, 1
  store i32 %22, ptr %6, align 4, !tbaa !125
  br label %12, !llvm.loop !238

23:                                               ; preds = %16
  call void @llvm.lifetime.start.p0(i64 4, ptr %7) #3
  %24 = load i32, ptr %4, align 4, !tbaa !125
  store i32 %24, ptr %7, align 4, !tbaa !125
  br label %25

25:                                               ; preds = %33, %23
  %26 = load i32, ptr %7, align 4, !tbaa !125
  %27 = load i32, ptr %5, align 4, !tbaa !125
  %28 = icmp ult i32 %26, %27
  br i1 %28, label %30, label %29

29:                                               ; preds = %25
  call void @llvm.lifetime.end.p0(i64 4, ptr %7) #3
  br label %36

30:                                               ; preds = %25
  %31 = call noundef nonnull align 8 dereferenceable(976) ptr @_ZNK4goal1mEv(ptr noundef nonnull align 8 dereferenceable(124) %9)
  %32 = getelementptr inbounds nuw %class.goal, ptr %9, i32 0, i32 8
  call void @_ZN11ast_manager8pop_backERN14parray_managerINS_17expr_array_configEE3refE(ptr noundef nonnull align 8 dereferenceable(976) %31, ptr noundef nonnull align 8 dereferenceable(12) %32)
  br label %33

33:                                               ; preds = %30
  %34 = load i32, ptr %7, align 4, !tbaa !125
  %35 = add i32 %34, 1
  store i32 %35, ptr %7, align 4, !tbaa !125
  br label %25, !llvm.loop !239

36:                                               ; preds = %29
  %37 = call noundef zeroext i1 @_ZNK4goal18unsat_core_enabledEv(ptr noundef nonnull align 8 dereferenceable(124) %9)
  br i1 %37, label %38, label %52

38:                                               ; preds = %36
  call void @llvm.lifetime.start.p0(i64 4, ptr %8) #3
  %39 = load i32, ptr %4, align 4, !tbaa !125
  store i32 %39, ptr %8, align 4, !tbaa !125
  br label %40

40:                                               ; preds = %48, %38
  %41 = load i32, ptr %8, align 4, !tbaa !125
  %42 = load i32, ptr %5, align 4, !tbaa !125
  %43 = icmp ult i32 %41, %42
  br i1 %43, label %45, label %44

44:                                               ; preds = %40
  call void @llvm.lifetime.end.p0(i64 4, ptr %8) #3
  br label %51

45:                                               ; preds = %40
  %46 = call noundef nonnull align 8 dereferenceable(976) ptr @_ZNK4goal1mEv(ptr noundef nonnull align 8 dereferenceable(124) %9)
  %47 = getelementptr inbounds nuw %class.goal, ptr %9, i32 0, i32 9
  call void @_ZN11ast_manager8pop_backERN14parray_managerINS_28expr_dependency_array_configEE3refE(ptr noundef nonnull align 8 dereferenceable(976) %46, ptr noundef nonnull align 8 dereferenceable(12) %47)
  br label %48

48:                                               ; preds = %45
  %49 = load i32, ptr %8, align 4, !tbaa !125
  %50 = add i32 %49, 1
  store i32 %50, ptr %8, align 4, !tbaa !125
  br label %40, !llvm.loop !240

51:                                               ; preds = %44
  br label %52

52:                                               ; preds = %51, %36
  call void @llvm.lifetime.end.p0(i64 4, ptr %5) #3
  ret void
}