; Function Attrs: mustprogress uwtable
define hidden void @_ZN4goal6shrinkEj(ptr noundef nonnull align 8 dereferenceable(124) %0, i32 noundef %1) local_unnamed_addr #4 align 2 {
  %3 = getelementptr inbounds nuw i8, ptr %0, i64 72
  %4 = load ptr, ptr %3, align 8, !tbaa !15
  %5 = icmp eq ptr %4, null
  br i1 %5, label %.loopexit, label %.preheader.i.i.i

.preheader.i.i.i:                                 ; preds = %2, %8
  %.0.i.i.i = phi ptr [ %10, %8 ], [ %4, %2 ]
  %6 = load i32, ptr %.0.i.i.i, align 8
  %7 = lshr i32 %6, 30
  switch i32 %7, label %default.unreachable [
    i32 0, label %8
    i32 1, label %11
    i32 2, label %15
    i32 3, label %19
  ]

8:                                                ; preds = %.preheader.i.i.i
  %9 = getelementptr inbounds nuw i8, ptr %.0.i.i.i, i64 16
  %10 = load ptr, ptr %9, align 8, !tbaa !14
  br label %.preheader.i.i.i, !llvm.loop !154

11:                                               ; preds = %.preheader.i.i.i
  %12 = getelementptr inbounds nuw i8, ptr %.0.i.i.i, i64 4
  %13 = load i32, ptr %12, align 4, !tbaa !14
  %14 = add i32 %13, 1
  br label %_ZNK4goal4sizeEv.exit

15:                                               ; preds = %.preheader.i.i.i
  %16 = getelementptr inbounds nuw i8, ptr %.0.i.i.i, i64 4
  %17 = load i32, ptr %16, align 4, !tbaa !14
  %18 = add i32 %17, -1
  br label %_ZNK4goal4sizeEv.exit

19:                                               ; preds = %.preheader.i.i.i
  %20 = getelementptr inbounds nuw i8, ptr %.0.i.i.i, i64 4
  %21 = load i32, ptr %20, align 4, !tbaa !14
  br label %_ZNK4goal4sizeEv.exit

default.unreachable:                              ; preds = %.preheader.i.i.i
  unreachable

_ZNK4goal4sizeEv.exit:                            ; preds = %11, %15, %19
  %.07.i.i.i = phi i32 [ %21, %19 ], [ %18, %15 ], [ %14, %11 ]
  %22 = icmp ult i32 %1, %.07.i.i.i
  br i1 %22, label %.lr.ph, label %.loopexit

.lr.ph21:                                         ; preds = %.lr.ph
  %23 = getelementptr inbounds nuw i8, ptr %0, i64 88
  br label %31

.lr.ph:                                           ; preds = %_ZNK4goal4sizeEv.exit, %.lr.ph
  %.01319 = phi i32 [ %26, %.lr.ph ], [ %1, %_ZNK4goal4sizeEv.exit ]
  %24 = load ptr, ptr %0, align 8, !tbaa !102
  %25 = getelementptr inbounds nuw i8, ptr %24, i64 616
  tail call void @_ZN14parray_managerIN11ast_manager17expr_array_configEE8pop_backERNS2_3refE(ptr noundef nonnull align 8 dereferenceable(32) %25, ptr noundef nonnull align 8 dereferenceable(12) %3)
  %26 = add i32 %.01319, 1
  %exitcond.not = icmp eq i32 %26, %.07.i.i.i
  br i1 %exitcond.not, label %.lr.ph21, label %.lr.ph, !llvm.loop !216

._crit_edge:                                      ; preds = %31
  %27 = getelementptr inbounds nuw i8, ptr %0, i64 120
  %28 = load i32, ptr %27, align 8
  %29 = and i32 %28, 268435456
  %.not.not = icmp eq i32 %29, 0
  br i1 %.not.not, label %.loopexit, label %.lr.ph23

.lr.ph23:                                         ; preds = %._crit_edge
  %30 = getelementptr inbounds nuw i8, ptr %0, i64 104
  br label %35

31:                                               ; preds = %.lr.ph21, %31
  %.01220 = phi i32 [ %1, %.lr.ph21 ], [ %34, %31 ]
  %32 = load ptr, ptr %0, align 8, !tbaa !102
  %33 = getelementptr inbounds nuw i8, ptr %32, i64 616
  tail call void @_ZN14parray_managerIN11ast_manager17expr_array_configEE8pop_backERNS2_3refE(ptr noundef nonnull align 8 dereferenceable(32) %33, ptr noundef nonnull align 8 dereferenceable(12) %23)
  %34 = add i32 %.01220, 1
  %exitcond27.not = icmp eq i32 %34, %.07.i.i.i
  br i1 %exitcond27.not, label %._crit_edge, label %31, !llvm.loop !217

35:                                               ; preds = %.lr.ph23, %35
  %.022 = phi i32 [ %1, %.lr.ph23 ], [ %38, %35 ]
  %36 = load ptr, ptr %0, align 8, !tbaa !102
  %37 = getelementptr inbounds nuw i8, ptr %36, i64 672
  tail call void @_ZN14parray_managerIN11ast_manager28expr_dependency_array_configEE8pop_backERNS2_3refE(ptr noundef nonnull align 8 dereferenceable(32) %37, ptr noundef nonnull align 8 dereferenceable(12) %30)
  %38 = add i32 %.022, 1
  %exitcond28.not = icmp eq i32 %38, %.07.i.i.i
  br i1 %exitcond28.not, label %.loopexit, label %35, !llvm.loop !218

.loopexit:                                        ; preds = %35, %_ZNK4goal4sizeEv.exit, %2, %._crit_edge
  ret void
}